
wyswietlacz.elf:     file format elf32-avr

Sections:
Idx Name          Size      VMA       LMA       File off  Algn
  0 .text         000003c4  00000000  00000000  00000094  2**1
                  CONTENTS, ALLOC, LOAD, READONLY, CODE
  1 .data         0000005e  00800060  000003c4  00000458  2**0
                  CONTENTS, ALLOC, LOAD, DATA
  2 .bss          00000002  008000be  008000be  000004b6  2**0
                  ALLOC
  3 .stab         000006cc  00000000  00000000  000004b8  2**2
                  CONTENTS, READONLY, DEBUGGING
  4 .stabstr      00000054  00000000  00000000  00000b84  2**0
                  CONTENTS, READONLY, DEBUGGING
  5 .comment      00000011  00000000  00000000  00000bd8  2**0
                  CONTENTS, READONLY

Disassembly of section .text:

00000000 <__vectors>:
   0:	12 c0       	rjmp	.+36     	; 0x26 <__ctors_end>
   2:	2c c0       	rjmp	.+88     	; 0x5c <__bad_interrupt>
   4:	2b c0       	rjmp	.+86     	; 0x5c <__bad_interrupt>
   6:	2a c0       	rjmp	.+84     	; 0x5c <__bad_interrupt>
   8:	29 c0       	rjmp	.+82     	; 0x5c <__bad_interrupt>
   a:	28 c0       	rjmp	.+80     	; 0x5c <__bad_interrupt>
   c:	27 c0       	rjmp	.+78     	; 0x5c <__bad_interrupt>
   e:	26 c0       	rjmp	.+76     	; 0x5c <__bad_interrupt>
  10:	25 c0       	rjmp	.+74     	; 0x5c <__bad_interrupt>
  12:	24 c0       	rjmp	.+72     	; 0x5c <__bad_interrupt>
  14:	23 c0       	rjmp	.+70     	; 0x5c <__bad_interrupt>
  16:	22 c0       	rjmp	.+68     	; 0x5c <__bad_interrupt>
  18:	21 c0       	rjmp	.+66     	; 0x5c <__bad_interrupt>
  1a:	20 c0       	rjmp	.+64     	; 0x5c <__bad_interrupt>
  1c:	1f c0       	rjmp	.+62     	; 0x5c <__bad_interrupt>
  1e:	1e c0       	rjmp	.+60     	; 0x5c <__bad_interrupt>
  20:	1d c0       	rjmp	.+58     	; 0x5c <__bad_interrupt>
  22:	1c c0       	rjmp	.+56     	; 0x5c <__bad_interrupt>
  24:	1b c0       	rjmp	.+54     	; 0x5c <__bad_interrupt>

00000026 <__ctors_end>:
  26:	11 24       	eor	r1, r1
  28:	1f be       	out	0x3f, r1	; 63
  2a:	cf e5       	ldi	r28, 0x5F	; 95
  2c:	d4 e0       	ldi	r29, 0x04	; 4
  2e:	de bf       	out	0x3e, r29	; 62
  30:	cd bf       	out	0x3d, r28	; 61

00000032 <__do_copy_data>:
  32:	10 e0       	ldi	r17, 0x00	; 0
  34:	a0 e6       	ldi	r26, 0x60	; 96
  36:	b0 e0       	ldi	r27, 0x00	; 0
  38:	e4 ec       	ldi	r30, 0xC4	; 196
  3a:	f3 e0       	ldi	r31, 0x03	; 3
  3c:	02 c0       	rjmp	.+4      	; 0x42 <__SREG__+0x3>
  3e:	05 90       	lpm	r0, Z+
  40:	0d 92       	st	X+, r0
  42:	ae 3b       	cpi	r26, 0xBE	; 190
  44:	b1 07       	cpc	r27, r17
  46:	d9 f7       	brne	.-10     	; 0x3e <__SP_H__>

00000048 <__do_clear_bss>:
  48:	10 e0       	ldi	r17, 0x00	; 0
  4a:	ae eb       	ldi	r26, 0xBE	; 190
  4c:	b0 e0       	ldi	r27, 0x00	; 0
  4e:	01 c0       	rjmp	.+2      	; 0x52 <.do_clear_bss_start>

00000050 <.do_clear_bss_loop>:
  50:	1d 92       	st	X+, r1

00000052 <.do_clear_bss_start>:
  52:	a0 3c       	cpi	r26, 0xC0	; 192
  54:	b1 07       	cpc	r27, r17
  56:	e1 f7       	brne	.-8      	; 0x50 <.do_clear_bss_loop>
  58:	f0 d0       	rcall	.+480    	; 0x23a <main>
  5a:	b2 c1       	rjmp	.+868    	; 0x3c0 <_exit>

0000005c <__bad_interrupt>:
  5c:	d1 cf       	rjmp	.-94     	; 0x0 <__vectors>

0000005e <_LCD_OutNibble>:
  5e:	80 ff       	sbrs	r24, 0
  60:	02 c0       	rjmp	.+4      	; 0x66 <_LCD_OutNibble+0x8>
  62:	c3 9a       	sbi	0x18, 3	; 24
  64:	01 c0       	rjmp	.+2      	; 0x68 <_LCD_OutNibble+0xa>
  66:	c3 98       	cbi	0x18, 3	; 24
  68:	81 ff       	sbrs	r24, 1
  6a:	02 c0       	rjmp	.+4      	; 0x70 <_LCD_OutNibble+0x12>
  6c:	c4 9a       	sbi	0x18, 4	; 24
  6e:	01 c0       	rjmp	.+2      	; 0x72 <_LCD_OutNibble+0x14>
  70:	c4 98       	cbi	0x18, 4	; 24
  72:	82 ff       	sbrs	r24, 2
  74:	02 c0       	rjmp	.+4      	; 0x7a <_LCD_OutNibble+0x1c>
  76:	c5 9a       	sbi	0x18, 5	; 24
  78:	01 c0       	rjmp	.+2      	; 0x7c <_LCD_OutNibble+0x1e>
  7a:	c5 98       	cbi	0x18, 5	; 24
  7c:	83 ff       	sbrs	r24, 3
  7e:	02 c0       	rjmp	.+4      	; 0x84 <_LCD_OutNibble+0x26>
  80:	c6 9a       	sbi	0x18, 6	; 24
  82:	08 95       	ret
  84:	c6 98       	cbi	0x18, 6	; 24
  86:	08 95       	ret

00000088 <_LCD_InNibble>:
  88:	86 b3       	in	r24, 0x16	; 22
  8a:	83 fb       	bst	r24, 3
  8c:	88 27       	eor	r24, r24
  8e:	80 f9       	bld	r24, 0
  90:	b4 99       	sbic	0x16, 4	; 22
  92:	82 60       	ori	r24, 0x02	; 2
  94:	b5 99       	sbic	0x16, 5	; 22
  96:	84 60       	ori	r24, 0x04	; 4
  98:	b6 99       	sbic	0x16, 6	; 22
  9a:	88 60       	ori	r24, 0x08	; 8
  9c:	08 95       	ret

0000009e <_LCD_Read>:
  9e:	cf 93       	push	r28
  a0:	df 93       	push	r29
  a2:	bb 98       	cbi	0x17, 3	; 23
  a4:	bc 98       	cbi	0x17, 4	; 23
  a6:	bd 98       	cbi	0x17, 5	; 23
  a8:	be 98       	cbi	0x17, 6	; 23
  aa:	c1 9a       	sbi	0x18, 1	; 24
  ac:	c2 9a       	sbi	0x18, 2	; 24
  ae:	ec df       	rcall	.-40     	; 0x88 <_LCD_InNibble>
  b0:	90 e1       	ldi	r25, 0x10	; 16
  b2:	89 9f       	mul	r24, r25
  b4:	e0 01       	movw	r28, r0
  b6:	11 24       	eor	r1, r1
  b8:	c2 98       	cbi	0x18, 2	; 24
  ba:	c2 9a       	sbi	0x18, 2	; 24
  bc:	e5 df       	rcall	.-54     	; 0x88 <_LCD_InNibble>
  be:	c2 98       	cbi	0x18, 2	; 24
  c0:	8c 2b       	or	r24, r28
  c2:	df 91       	pop	r29
  c4:	cf 91       	pop	r28
  c6:	08 95       	ret

000000c8 <LCD_ReadStatus>:
  c8:	c0 98       	cbi	0x18, 0	; 24
  ca:	e9 cf       	rjmp	.-46     	; 0x9e <_LCD_Read>

000000cc <_LCD_Write>:
  cc:	cf 93       	push	r28
  ce:	c8 2f       	mov	r28, r24
  d0:	bb 9a       	sbi	0x17, 3	; 23
  d2:	bc 9a       	sbi	0x17, 4	; 23
  d4:	bd 9a       	sbi	0x17, 5	; 23
  d6:	be 9a       	sbi	0x17, 6	; 23
  d8:	c1 98       	cbi	0x18, 1	; 24
  da:	c2 9a       	sbi	0x18, 2	; 24
  dc:	82 95       	swap	r24
  de:	8f 70       	andi	r24, 0x0F	; 15
  e0:	be df       	rcall	.-132    	; 0x5e <_LCD_OutNibble>
  e2:	c2 98       	cbi	0x18, 2	; 24
  e4:	c2 9a       	sbi	0x18, 2	; 24
  e6:	8c 2f       	mov	r24, r28
  e8:	ba df       	rcall	.-140    	; 0x5e <_LCD_OutNibble>
  ea:	c2 98       	cbi	0x18, 2	; 24
  ec:	ed df       	rcall	.-38     	; 0xc8 <LCD_ReadStatus>
  ee:	87 fd       	sbrc	r24, 7
  f0:	fd cf       	rjmp	.-6      	; 0xec <_LCD_Write+0x20>
  f2:	cf 91       	pop	r28
  f4:	08 95       	ret

000000f6 <LCD_WriteCommand>:
  f6:	c0 98       	cbi	0x18, 0	; 24
  f8:	e9 cf       	rjmp	.-46     	; 0xcc <_LCD_Write>

000000fa <LCD_WriteData>:
  fa:	c0 9a       	sbi	0x18, 0	; 24
  fc:	e7 cf       	rjmp	.-50     	; 0xcc <_LCD_Write>

000000fe <LCD_ReadData>:
  fe:	c0 9a       	sbi	0x18, 0	; 24
 100:	ce cf       	rjmp	.-100    	; 0x9e <_LCD_Read>

00000102 <LCD_WriteText>:
 102:	cf 93       	push	r28
 104:	df 93       	push	r29
 106:	ec 01       	movw	r28, r24
 108:	89 91       	ld	r24, Y+
 10a:	88 23       	and	r24, r24
 10c:	11 f0       	breq	.+4      	; 0x112 <LCD_WriteText+0x10>
 10e:	f5 df       	rcall	.-22     	; 0xfa <LCD_WriteData>
 110:	fb cf       	rjmp	.-10     	; 0x108 <LCD_WriteText+0x6>
 112:	df 91       	pop	r29
 114:	cf 91       	pop	r28
 116:	08 95       	ret

00000118 <LCD_GoTo>:
 118:	90 e4       	ldi	r25, 0x40	; 64
 11a:	69 9f       	mul	r22, r25
 11c:	80 0d       	add	r24, r0
 11e:	11 24       	eor	r1, r1
 120:	80 68       	ori	r24, 0x80	; 128
 122:	e9 cf       	rjmp	.-46     	; 0xf6 <LCD_WriteCommand>

00000124 <LCD_Clear>:
 124:	81 e0       	ldi	r24, 0x01	; 1
 126:	e7 df       	rcall	.-50     	; 0xf6 <LCD_WriteCommand>
 128:	83 ef       	ldi	r24, 0xF3	; 243
 12a:	91 e0       	ldi	r25, 0x01	; 1
 12c:	01 97       	sbiw	r24, 0x01	; 1
 12e:	f1 f7       	brne	.-4      	; 0x12c <LCD_Clear+0x8>
 130:	00 c0       	rjmp	.+0      	; 0x132 <LCD_Clear+0xe>
 132:	00 00       	nop
 134:	08 95       	ret

00000136 <LCD_Home>:
 136:	82 e0       	ldi	r24, 0x02	; 2
 138:	de df       	rcall	.-68     	; 0xf6 <LCD_WriteCommand>
 13a:	83 ef       	ldi	r24, 0xF3	; 243
 13c:	91 e0       	ldi	r25, 0x01	; 1
 13e:	01 97       	sbiw	r24, 0x01	; 1
 140:	f1 f7       	brne	.-4      	; 0x13e <LCD_Home+0x8>
 142:	00 c0       	rjmp	.+0      	; 0x144 <LCD_Home+0xe>
 144:	00 00       	nop
 146:	08 95       	ret

00000148 <LCD_Initalize>:
 148:	cf 93       	push	r28
 14a:	bb 9a       	sbi	0x17, 3	; 23
 14c:	bc 9a       	sbi	0x17, 4	; 23
 14e:	bd 9a       	sbi	0x17, 5	; 23
 150:	be 9a       	sbi	0x17, 6	; 23
 152:	ba 9a       	sbi	0x17, 2	; 23
 154:	b8 9a       	sbi	0x17, 0	; 23
 156:	b9 9a       	sbi	0x17, 1	; 23
 158:	85 ea       	ldi	r24, 0xA5	; 165
 15a:	9e e0       	ldi	r25, 0x0E	; 14
 15c:	01 97       	sbiw	r24, 0x01	; 1
 15e:	f1 f7       	brne	.-4      	; 0x15c <LCD_Initalize+0x14>
 160:	00 c0       	rjmp	.+0      	; 0x162 <LCD_Initalize+0x1a>
 162:	00 00       	nop
 164:	c0 98       	cbi	0x18, 0	; 24
 166:	c2 98       	cbi	0x18, 2	; 24
 168:	c1 98       	cbi	0x18, 1	; 24
 16a:	c3 e0       	ldi	r28, 0x03	; 3
 16c:	c2 9a       	sbi	0x18, 2	; 24
 16e:	83 e0       	ldi	r24, 0x03	; 3
 170:	76 df       	rcall	.-276    	; 0x5e <_LCD_OutNibble>
 172:	c2 98       	cbi	0x18, 2	; 24
 174:	81 ee       	ldi	r24, 0xE1	; 225
 176:	94 e0       	ldi	r25, 0x04	; 4
 178:	01 97       	sbiw	r24, 0x01	; 1
 17a:	f1 f7       	brne	.-4      	; 0x178 <LCD_Initalize+0x30>
 17c:	00 c0       	rjmp	.+0      	; 0x17e <LCD_Initalize+0x36>
 17e:	00 00       	nop
 180:	c1 50       	subi	r28, 0x01	; 1
 182:	a1 f7       	brne	.-24     	; 0x16c <LCD_Initalize+0x24>
 184:	c2 9a       	sbi	0x18, 2	; 24
 186:	82 e0       	ldi	r24, 0x02	; 2
 188:	6a df       	rcall	.-300    	; 0x5e <_LCD_OutNibble>
 18a:	c2 98       	cbi	0x18, 2	; 24
 18c:	89 ef       	ldi	r24, 0xF9	; 249
 18e:	90 e0       	ldi	r25, 0x00	; 0
 190:	01 97       	sbiw	r24, 0x01	; 1
 192:	f1 f7       	brne	.-4      	; 0x190 <LCD_Initalize+0x48>
 194:	00 c0       	rjmp	.+0      	; 0x196 <LCD_Initalize+0x4e>
 196:	00 00       	nop
 198:	88 e2       	ldi	r24, 0x28	; 40
 19a:	ad df       	rcall	.-166    	; 0xf6 <LCD_WriteCommand>
 19c:	88 e0       	ldi	r24, 0x08	; 8
 19e:	ab df       	rcall	.-170    	; 0xf6 <LCD_WriteCommand>
 1a0:	81 e0       	ldi	r24, 0x01	; 1
 1a2:	a9 df       	rcall	.-174    	; 0xf6 <LCD_WriteCommand>
 1a4:	86 e0       	ldi	r24, 0x06	; 6
 1a6:	a7 df       	rcall	.-178    	; 0xf6 <LCD_WriteCommand>
 1a8:	8c e0       	ldi	r24, 0x0C	; 12
 1aa:	cf 91       	pop	r28
 1ac:	a4 cf       	rjmp	.-184    	; 0xf6 <LCD_WriteCommand>

000001ae <display_opt>:
 1ae:	1f 93       	push	r17
 1b0:	cf 93       	push	r28
 1b2:	df 93       	push	r29
 1b4:	c8 2f       	mov	r28, r24
 1b6:	80 91 be 00 	lds	r24, 0x00BE
 1ba:	8c 17       	cp	r24, r28
 1bc:	c0 f4       	brcc	.+48     	; 0x1ee <display_opt+0x40>
 1be:	b2 df       	rcall	.-156    	; 0x124 <LCD_Clear>
 1c0:	60 e0       	ldi	r22, 0x00	; 0
 1c2:	82 e0       	ldi	r24, 0x02	; 2
 1c4:	a9 df       	rcall	.-174    	; 0x118 <LCD_GoTo>
 1c6:	d0 e0       	ldi	r29, 0x00	; 0
 1c8:	9e 01       	movw	r18, r28
 1ca:	21 50       	subi	r18, 0x01	; 1
 1cc:	31 09       	sbc	r19, r1
 1ce:	1f e0       	ldi	r17, 0x0F	; 15
 1d0:	12 9f       	mul	r17, r18
 1d2:	c0 01       	movw	r24, r0
 1d4:	13 9f       	mul	r17, r19
 1d6:	90 0d       	add	r25, r0
 1d8:	11 24       	eor	r1, r1
 1da:	80 5a       	subi	r24, 0xA0	; 160
 1dc:	9f 4f       	sbci	r25, 0xFF	; 255
 1de:	91 df       	rcall	.-222    	; 0x102 <LCD_WriteText>
 1e0:	61 e0       	ldi	r22, 0x01	; 1
 1e2:	80 e0       	ldi	r24, 0x00	; 0
 1e4:	99 df       	rcall	.-206    	; 0x118 <LCD_GoTo>
 1e6:	8b ea       	ldi	r24, 0xAB	; 171
 1e8:	90 e0       	ldi	r25, 0x00	; 0
 1ea:	8b df       	rcall	.-234    	; 0x102 <LCD_WriteText>
 1ec:	17 c0       	rjmp	.+46     	; 0x21c <display_opt+0x6e>
 1ee:	c8 17       	cp	r28, r24
 1f0:	00 f5       	brcc	.+64     	; 0x232 <display_opt+0x84>
 1f2:	98 df       	rcall	.-208    	; 0x124 <LCD_Clear>
 1f4:	60 e0       	ldi	r22, 0x00	; 0
 1f6:	80 e0       	ldi	r24, 0x00	; 0
 1f8:	8f df       	rcall	.-226    	; 0x118 <LCD_GoTo>
 1fa:	8b ea       	ldi	r24, 0xAB	; 171
 1fc:	90 e0       	ldi	r25, 0x00	; 0
 1fe:	81 df       	rcall	.-254    	; 0x102 <LCD_WriteText>
 200:	d0 e0       	ldi	r29, 0x00	; 0
 202:	1f e0       	ldi	r17, 0x0F	; 15
 204:	1c 9f       	mul	r17, r28
 206:	c0 01       	movw	r24, r0
 208:	1d 9f       	mul	r17, r29
 20a:	90 0d       	add	r25, r0
 20c:	11 24       	eor	r1, r1
 20e:	80 5a       	subi	r24, 0xA0	; 160
 210:	9f 4f       	sbci	r25, 0xFF	; 255
 212:	77 df       	rcall	.-274    	; 0x102 <LCD_WriteText>
 214:	61 e0       	ldi	r22, 0x01	; 1
 216:	82 e0       	ldi	r24, 0x02	; 2
 218:	7f df       	rcall	.-258    	; 0x118 <LCD_GoTo>
 21a:	21 96       	adiw	r28, 0x01	; 1
 21c:	1c 9f       	mul	r17, r28
 21e:	c0 01       	movw	r24, r0
 220:	1d 9f       	mul	r17, r29
 222:	90 0d       	add	r25, r0
 224:	11 24       	eor	r1, r1
 226:	80 5a       	subi	r24, 0xA0	; 160
 228:	9f 4f       	sbci	r25, 0xFF	; 255
 22a:	df 91       	pop	r29
 22c:	cf 91       	pop	r28
 22e:	1f 91       	pop	r17
 230:	68 cf       	rjmp	.-304    	; 0x102 <LCD_WriteText>
 232:	df 91       	pop	r29
 234:	cf 91       	pop	r28
 236:	1f 91       	pop	r17
 238:	08 95       	ret

0000023a <main>:
 23a:	80 ef       	ldi	r24, 0xF0	; 240
 23c:	82 bb       	out	0x12, r24	; 18
 23e:	84 df       	rcall	.-248    	; 0x148 <LCD_Initalize>
 240:	71 df       	rcall	.-286    	; 0x124 <LCD_Clear>
 242:	79 df       	rcall	.-270    	; 0x136 <LCD_Home>
 244:	8b ea       	ldi	r24, 0xAB	; 171
 246:	90 e0       	ldi	r25, 0x00	; 0
 248:	5c df       	rcall	.-328    	; 0x102 <LCD_WriteText>
 24a:	80 91 bf 00 	lds	r24, 0x00BF
 24e:	cf e0       	ldi	r28, 0x0F	; 15
 250:	c8 9f       	mul	r28, r24
 252:	c0 01       	movw	r24, r0
 254:	11 24       	eor	r1, r1
 256:	80 5a       	subi	r24, 0xA0	; 160
 258:	9f 4f       	sbci	r25, 0xFF	; 255
 25a:	53 df       	rcall	.-346    	; 0x102 <LCD_WriteText>
 25c:	61 e0       	ldi	r22, 0x01	; 1
 25e:	82 e0       	ldi	r24, 0x02	; 2
 260:	5b df       	rcall	.-330    	; 0x118 <LCD_GoTo>
 262:	20 91 bf 00 	lds	r18, 0x00BF
 266:	30 e0       	ldi	r19, 0x00	; 0
 268:	2f 5f       	subi	r18, 0xFF	; 255
 26a:	3f 4f       	sbci	r19, 0xFF	; 255
 26c:	c2 9f       	mul	r28, r18
 26e:	c0 01       	movw	r24, r0
 270:	c3 9f       	mul	r28, r19
 272:	90 0d       	add	r25, r0
 274:	11 24       	eor	r1, r1
 276:	80 5a       	subi	r24, 0xA0	; 160
 278:	9f 4f       	sbci	r25, 0xFF	; 255
 27a:	43 df       	rcall	.-378    	; 0x102 <LCD_WriteText>
 27c:	84 99       	sbic	0x10, 4	; 16
 27e:	14 c0       	rjmp	.+40     	; 0x2a8 <main+0x6e>
 280:	87 e8       	ldi	r24, 0x87	; 135
 282:	93 e1       	ldi	r25, 0x13	; 19
 284:	01 97       	sbiw	r24, 0x01	; 1
 286:	f1 f7       	brne	.-4      	; 0x284 <main+0x4a>
 288:	00 c0       	rjmp	.+0      	; 0x28a <main+0x50>
 28a:	00 00       	nop
 28c:	84 9b       	sbis	0x10, 4	; 16
 28e:	fe cf       	rjmp	.-4      	; 0x28c <main+0x52>
 290:	80 91 bf 00 	lds	r24, 0x00BF
 294:	80 93 be 00 	sts	0x00BE, r24
 298:	91 e0       	ldi	r25, 0x01	; 1
 29a:	81 11       	cpse	r24, r1
 29c:	01 c0       	rjmp	.+2      	; 0x2a0 <main+0x66>
 29e:	90 e0       	ldi	r25, 0x00	; 0
 2a0:	89 1b       	sub	r24, r25
 2a2:	80 93 bf 00 	sts	0x00BF, r24
 2a6:	83 df       	rcall	.-250    	; 0x1ae <display_opt>
 2a8:	85 99       	sbic	0x10, 5	; 16
 2aa:	1a c0       	rjmp	.+52     	; 0x2e0 <main+0xa6>
 2ac:	87 e8       	ldi	r24, 0x87	; 135
 2ae:	93 e1       	ldi	r25, 0x13	; 19
 2b0:	01 97       	sbiw	r24, 0x01	; 1
 2b2:	f1 f7       	brne	.-4      	; 0x2b0 <main+0x76>
 2b4:	00 c0       	rjmp	.+0      	; 0x2b6 <main+0x7c>
 2b6:	00 00       	nop
 2b8:	85 9b       	sbis	0x10, 5	; 16
 2ba:	fe cf       	rjmp	.-4      	; 0x2b8 <main+0x7e>
 2bc:	80 91 bf 00 	lds	r24, 0x00BF
 2c0:	80 93 be 00 	sts	0x00BE, r24
 2c4:	91 e0       	ldi	r25, 0x01	; 1
 2c6:	84 30       	cpi	r24, 0x04	; 4
 2c8:	08 f0       	brcs	.+2      	; 0x2cc <main+0x92>
 2ca:	90 e0       	ldi	r25, 0x00	; 0
 2cc:	89 0f       	add	r24, r25
 2ce:	80 93 bf 00 	sts	0x00BF, r24
 2d2:	6d df       	rcall	.-294    	; 0x1ae <display_opt>
 2d4:	87 e8       	ldi	r24, 0x87	; 135
 2d6:	93 e1       	ldi	r25, 0x13	; 19
 2d8:	01 97       	sbiw	r24, 0x01	; 1
 2da:	f1 f7       	brne	.-4      	; 0x2d8 <main+0x9e>
 2dc:	00 c0       	rjmp	.+0      	; 0x2de <main+0xa4>
 2de:	00 00       	nop
 2e0:	87 99       	sbic	0x10, 7	; 16
 2e2:	1d c0       	rjmp	.+58     	; 0x31e <main+0xe4>
 2e4:	87 e8       	ldi	r24, 0x87	; 135
 2e6:	93 e1       	ldi	r25, 0x13	; 19
 2e8:	01 97       	sbiw	r24, 0x01	; 1
 2ea:	f1 f7       	brne	.-4      	; 0x2e8 <main+0xae>
 2ec:	00 c0       	rjmp	.+0      	; 0x2ee <main+0xb4>
 2ee:	00 00       	nop
 2f0:	87 9b       	sbis	0x10, 7	; 16
 2f2:	fe cf       	rjmp	.-4      	; 0x2f0 <main+0xb6>
 2f4:	17 df       	rcall	.-466    	; 0x124 <LCD_Clear>
 2f6:	8e ea       	ldi	r24, 0xAE	; 174
 2f8:	90 e0       	ldi	r25, 0x00	; 0
 2fa:	03 df       	rcall	.-506    	; 0x102 <LCD_WriteText>
 2fc:	61 e0       	ldi	r22, 0x01	; 1
 2fe:	80 e0       	ldi	r24, 0x00	; 0
 300:	0b df       	rcall	.-490    	; 0x118 <LCD_GoTo>
 302:	80 91 bf 00 	lds	r24, 0x00BF
 306:	c8 9f       	mul	r28, r24
 308:	c0 01       	movw	r24, r0
 30a:	11 24       	eor	r1, r1
 30c:	80 5a       	subi	r24, 0xA0	; 160
 30e:	9f 4f       	sbci	r25, 0xFF	; 255
 310:	f8 de       	rcall	.-528    	; 0x102 <LCD_WriteText>
 312:	87 e8       	ldi	r24, 0x87	; 135
 314:	93 e1       	ldi	r25, 0x13	; 19
 316:	01 97       	sbiw	r24, 0x01	; 1
 318:	f1 f7       	brne	.-4      	; 0x316 <main+0xdc>
 31a:	00 c0       	rjmp	.+0      	; 0x31c <main+0xe2>
 31c:	00 00       	nop
 31e:	86 99       	sbic	0x10, 6	; 16
 320:	ad cf       	rjmp	.-166    	; 0x27c <main+0x42>
 322:	87 e8       	ldi	r24, 0x87	; 135
 324:	93 e1       	ldi	r25, 0x13	; 19
 326:	01 97       	sbiw	r24, 0x01	; 1
 328:	f1 f7       	brne	.-4      	; 0x326 <main+0xec>
 32a:	00 c0       	rjmp	.+0      	; 0x32c <main+0xf2>
 32c:	00 00       	nop
 32e:	86 9b       	sbis	0x10, 6	; 16
 330:	fe cf       	rjmp	.-4      	; 0x32e <main+0xf4>
 332:	80 91 bf 00 	lds	r24, 0x00BF
 336:	84 30       	cpi	r24, 0x04	; 4
 338:	e8 f4       	brcc	.+58     	; 0x374 <main+0x13a>
 33a:	f4 de       	rcall	.-536    	; 0x124 <LCD_Clear>
 33c:	60 e0       	ldi	r22, 0x00	; 0
 33e:	80 e0       	ldi	r24, 0x00	; 0
 340:	eb de       	rcall	.-554    	; 0x118 <LCD_GoTo>
 342:	8b ea       	ldi	r24, 0xAB	; 171
 344:	90 e0       	ldi	r25, 0x00	; 0
 346:	dd de       	rcall	.-582    	; 0x102 <LCD_WriteText>
 348:	80 91 bf 00 	lds	r24, 0x00BF
 34c:	c8 9f       	mul	r28, r24
 34e:	c0 01       	movw	r24, r0
 350:	11 24       	eor	r1, r1
 352:	80 5a       	subi	r24, 0xA0	; 160
 354:	9f 4f       	sbci	r25, 0xFF	; 255
 356:	d5 de       	rcall	.-598    	; 0x102 <LCD_WriteText>
 358:	61 e0       	ldi	r22, 0x01	; 1
 35a:	82 e0       	ldi	r24, 0x02	; 2
 35c:	dd de       	rcall	.-582    	; 0x118 <LCD_GoTo>
 35e:	20 91 bf 00 	lds	r18, 0x00BF
 362:	30 e0       	ldi	r19, 0x00	; 0
 364:	2f 5f       	subi	r18, 0xFF	; 255
 366:	3f 4f       	sbci	r19, 0xFF	; 255
 368:	c2 9f       	mul	r28, r18
 36a:	c0 01       	movw	r24, r0
 36c:	c3 9f       	mul	r28, r19
 36e:	90 0d       	add	r25, r0
 370:	11 24       	eor	r1, r1
 372:	1c c0       	rjmp	.+56     	; 0x3ac <main+0x172>
 374:	d7 de       	rcall	.-594    	; 0x124 <LCD_Clear>
 376:	60 e0       	ldi	r22, 0x00	; 0
 378:	82 e0       	ldi	r24, 0x02	; 2
 37a:	ce de       	rcall	.-612    	; 0x118 <LCD_GoTo>
 37c:	20 91 bf 00 	lds	r18, 0x00BF
 380:	30 e0       	ldi	r19, 0x00	; 0
 382:	21 50       	subi	r18, 0x01	; 1
 384:	31 09       	sbc	r19, r1
 386:	c2 9f       	mul	r28, r18
 388:	c0 01       	movw	r24, r0
 38a:	c3 9f       	mul	r28, r19
 38c:	90 0d       	add	r25, r0
 38e:	11 24       	eor	r1, r1
 390:	80 5a       	subi	r24, 0xA0	; 160
 392:	9f 4f       	sbci	r25, 0xFF	; 255
 394:	b6 de       	rcall	.-660    	; 0x102 <LCD_WriteText>
 396:	61 e0       	ldi	r22, 0x01	; 1
 398:	80 e0       	ldi	r24, 0x00	; 0
 39a:	be de       	rcall	.-644    	; 0x118 <LCD_GoTo>
 39c:	8b ea       	ldi	r24, 0xAB	; 171
 39e:	90 e0       	ldi	r25, 0x00	; 0
 3a0:	b0 de       	rcall	.-672    	; 0x102 <LCD_WriteText>
 3a2:	80 91 bf 00 	lds	r24, 0x00BF
 3a6:	c8 9f       	mul	r28, r24
 3a8:	c0 01       	movw	r24, r0
 3aa:	11 24       	eor	r1, r1
 3ac:	80 5a       	subi	r24, 0xA0	; 160
 3ae:	9f 4f       	sbci	r25, 0xFF	; 255
 3b0:	a8 de       	rcall	.-688    	; 0x102 <LCD_WriteText>
 3b2:	87 e8       	ldi	r24, 0x87	; 135
 3b4:	93 e1       	ldi	r25, 0x13	; 19
 3b6:	01 97       	sbiw	r24, 0x01	; 1
 3b8:	f1 f7       	brne	.-4      	; 0x3b6 <main+0x17c>
 3ba:	00 c0       	rjmp	.+0      	; 0x3bc <main+0x182>
 3bc:	00 00       	nop
 3be:	5e cf       	rjmp	.-324    	; 0x27c <main+0x42>

000003c0 <_exit>:
 3c0:	f8 94       	cli

000003c2 <__stop_program>:
 3c2:	ff cf       	rjmp	.-2      	; 0x3c2 <__stop_program>
